target datalayout = "e-m:e-p270:32:32-p271:32:32-p272:64:64-i64:64-i128:128-f80:128-n8:16:32:64-S128"
target triple = "x86_64-pc-linux-gnu"

%struct.FSE_DTableHeader = type { i16, i16 }
%struct.BIT_DStream_t = type { i64, i32, ptr, ptr, ptr }
%struct.FSE_DState_t = type { i64, ptr }

; Function Attrs: inlinehint nounwind uwtable
define internal i64 @MEM_swap64(i64 noundef %0) #3 {
  %2 = alloca i64, align 8
  store i64 %0, ptr %2, align 8, !tbaa !14
  %3 = load i64, ptr %2, align 8, !tbaa !14
  %4 = call i64 @llvm.bswap.i64(i64 %3)
  ret i64 %4
}

; Function Attrs: inlinehint nounwind uwtable
define internal i64 @MEM_read64(ptr noundef %0) #3 {
  %2 = alloca ptr, align 8
  store ptr %0, ptr %2, align 8, !tbaa !13
  %3 = load ptr, ptr %2, align 8, !tbaa !13
  %4 = load i64, ptr %3, align 1, !tbaa !14
  ret i64 %4
}

; Function Attrs: inlinehint nounwind uwtable
define internal i32 @MEM_swap32(i32 noundef %0) #3 {
  %2 = alloca i32, align 4
  store i32 %0, ptr %2, align 4, !tbaa !11
  %3 = load i32, ptr %2, align 4, !tbaa !11
  %4 = call i32 @llvm.bswap.i32(i32 %3)
  ret i32 %4
}

; Function Attrs: inlinehint nounwind uwtable
define internal i32 @MEM_read32(ptr noundef %0) #3 {
  %2 = alloca ptr, align 8
  store ptr %0, ptr %2, align 8, !tbaa !13
  %3 = load ptr, ptr %2, align 8, !tbaa !13
  %4 = load i32, ptr %3, align 1, !tbaa !11
  ret i32 %4
}

; Function Attrs: inlinehint nounwind uwtable
define internal i32 @MEM_isLittleEndian() #3 {
  ret i32 1
}

; Function Attrs: inlinehint nounwind uwtable
define internal i64 @MEM_readLE64(ptr noundef %0) #3 {
  %2 = alloca i64, align 8
  %3 = alloca ptr, align 8
  store ptr %0, ptr %3, align 8, !tbaa !13
  %4 = call i32 @MEM_isLittleEndian()
  %5 = icmp ne i32 %4, 0
  br i1 %5, label %6, label %9

6:                                                ; preds = %1
  %7 = load ptr, ptr %3, align 8, !tbaa !13
  %8 = call i64 @MEM_read64(ptr noundef %7)
  store i64 %8, ptr %2, align 8
  br label %13

9:                                                ; preds = %1
  %10 = load ptr, ptr %3, align 8, !tbaa !13
  %11 = call i64 @MEM_read64(ptr noundef %10)
  %12 = call i64 @MEM_swap64(i64 noundef %11)
  store i64 %12, ptr %2, align 8
  br label %13

13:                                               ; preds = %9, %6
  %14 = load i64, ptr %2, align 8
  ret i64 %14
}

; Function Attrs: inlinehint nounwind uwtable
define internal i32 @MEM_readLE32(ptr noundef %0) #3 {
  %2 = alloca i32, align 4
  %3 = alloca ptr, align 8
  store ptr %0, ptr %3, align 8, !tbaa !13
  %4 = call i32 @MEM_isLittleEndian()
  %5 = icmp ne i32 %4, 0
  br i1 %5, label %6, label %9

6:                                                ; preds = %1
  %7 = load ptr, ptr %3, align 8, !tbaa !13
  %8 = call i32 @MEM_read32(ptr noundef %7)
  store i32 %8, ptr %2, align 4
  br label %13

9:                                                ; preds = %1
  %10 = load ptr, ptr %3, align 8, !tbaa !13
  %11 = call i32 @MEM_read32(ptr noundef %10)
  %12 = call i32 @MEM_swap32(i32 noundef %11)
  store i32 %12, ptr %2, align 4
  br label %13

13:                                               ; preds = %9, %6
  %14 = load i32, ptr %2, align 4
  ret i32 %14
}

; Function Attrs: inlinehint nounwind uwtable
define internal i32 @MEM_32bits() #3 {
  ret i32 0
}

; Function Attrs: alwaysinline nounwind uwtable
define internal i64 @BIT_getMiddleBits(i64 noundef %0, i32 noundef %1, i32 noundef %2) #5 {
  %4 = alloca i64, align 8
  %5 = alloca i32, align 4
  %6 = alloca i32, align 4
  %7 = alloca i32, align 4
  store i64 %0, ptr %4, align 8, !tbaa !14
  store i32 %1, ptr %5, align 4, !tbaa !11
  store i32 %2, ptr %6, align 4, !tbaa !11
  call void @llvm.lifetime.start.p0(i64 4, ptr %7) #9
  store i32 63, ptr %7, align 4, !tbaa !11
  %8 = load i64, ptr %4, align 8, !tbaa !14
  %9 = load i32, ptr %5, align 4, !tbaa !11
  %10 = and i32 %9, 63
  %11 = zext i32 %10 to i64
  %12 = lshr i64 %8, %11
  %13 = load i32, ptr %6, align 4, !tbaa !11
  %14 = zext i32 %13 to i64
  %15 = shl i64 1, %14
  %16 = sub i64 %15, 1
  %17 = and i64 %12, %16
  call void @llvm.lifetime.end.p0(i64 4, ptr %7) #9
  ret i64 %17
}

; Function Attrs: inlinehint nounwind uwtable
define internal i64 @MEM_readLEST(ptr noundef %0) #3 {
  %2 = alloca i64, align 8
  %3 = alloca ptr, align 8
  store ptr %0, ptr %3, align 8, !tbaa !13
  %4 = call i32 @MEM_32bits()
  %5 = icmp ne i32 %4, 0
  br i1 %5, label %6, label %10

6:                                                ; preds = %1
  %7 = load ptr, ptr %3, align 8, !tbaa !13
  %8 = call i32 @MEM_readLE32(ptr noundef %7)
  %9 = zext i32 %8 to i64
  store i64 %9, ptr %2, align 8
  br label %13

10:                                               ; preds = %1
  %11 = load ptr, ptr %3, align 8, !tbaa !13
  %12 = call i64 @MEM_readLE64(ptr noundef %11)
  store i64 %12, ptr %2, align 8
  br label %13

13:                                               ; preds = %10, %6
  %14 = load i64, ptr %2, align 8
  ret i64 %14
}

; Function Attrs: inlinehint nounwind uwtable
define internal i32 @BIT_reloadDStreamFast(ptr noundef %0) #3 {
  %2 = alloca i32, align 4
  %3 = alloca ptr, align 8
  store ptr %0, ptr %3, align 8, !tbaa !13
  %4 = load ptr, ptr %3, align 8, !tbaa !13
  %5 = getelementptr inbounds nuw %struct.BIT_DStream_t, ptr %4, i32 0, i32 2
  %6 = load ptr, ptr %5, align 8, !tbaa !42
  %7 = load ptr, ptr %3, align 8, !tbaa !13
  %8 = getelementptr inbounds nuw %struct.BIT_DStream_t, ptr %7, i32 0, i32 4
  %9 = load ptr, ptr %8, align 8, !tbaa !41
  %10 = icmp ult ptr %6, %9
  %11 = zext i1 %10 to i32
  %12 = sext i32 %11 to i64
  %13 = call i64 @llvm.expect.i64(i64 %12, i64 0)
  %14 = icmp ne i64 %13, 0
  br i1 %14, label %15, label %16

15:                                               ; preds = %1
  store i32 3, ptr %2, align 4
  br label %37

16:                                               ; preds = %1
  %17 = load ptr, ptr %3, align 8, !tbaa !13
  %18 = getelementptr inbounds nuw %struct.BIT_DStream_t, ptr %17, i32 0, i32 1
  %19 = load i32, ptr %18, align 8, !tbaa !44
  %20 = lshr i32 %19, 3
  %21 = load ptr, ptr %3, align 8, !tbaa !13
  %22 = getelementptr inbounds nuw %struct.BIT_DStream_t, ptr %21, i32 0, i32 2
  %23 = load ptr, ptr %22, align 8, !tbaa !42
  %24 = zext i32 %20 to i64
  %25 = sub i64 0, %24
  %26 = getelementptr inbounds i8, ptr %23, i64 %25
  store ptr %26, ptr %22, align 8, !tbaa !42
  %27 = load ptr, ptr %3, align 8, !tbaa !13
  %28 = getelementptr inbounds nuw %struct.BIT_DStream_t, ptr %27, i32 0, i32 1
  %29 = load i32, ptr %28, align 8, !tbaa !44
  %30 = and i32 %29, 7
  store i32 %30, ptr %28, align 8, !tbaa !44
  %31 = load ptr, ptr %3, align 8, !tbaa !13
  %32 = getelementptr inbounds nuw %struct.BIT_DStream_t, ptr %31, i32 0, i32 2
  %33 = load ptr, ptr %32, align 8, !tbaa !42
  %34 = call i64 @MEM_readLEST(ptr noundef %33)
  %35 = load ptr, ptr %3, align 8, !tbaa !13
  %36 = getelementptr inbounds nuw %struct.BIT_DStream_t, ptr %35, i32 0, i32 0
  store i64 %34, ptr %36, align 8, !tbaa !43
  store i32 0, ptr %2, align 4
  br label %37

37:                                               ; preds = %16, %15
  %38 = load i32, ptr %2, align 4
  ret i32 %38
}

; Function Attrs: alwaysinline nounwind uwtable
define internal void @BIT_skipBits(ptr noundef %0, i32 noundef %1) #5 {
  %3 = alloca ptr, align 8
  %4 = alloca i32, align 4
  store ptr %0, ptr %3, align 8, !tbaa !13
  store i32 %1, ptr %4, align 4, !tbaa !11
  %5 = load i32, ptr %4, align 4, !tbaa !11
  %6 = load ptr, ptr %3, align 8, !tbaa !13
  %7 = getelementptr inbounds nuw %struct.BIT_DStream_t, ptr %6, i32 0, i32 1
  %8 = load i32, ptr %7, align 8, !tbaa !44
  %9 = add i32 %8, %5
  store i32 %9, ptr %7, align 8, !tbaa !44
  ret void
}

; Function Attrs: alwaysinline nounwind uwtable
define internal i64 @BIT_lookBits(ptr noundef %0, i32 noundef %1) #5 {
  %3 = alloca ptr, align 8
  %4 = alloca i32, align 4
  store ptr %0, ptr %3, align 8, !tbaa !13
  store i32 %1, ptr %4, align 4, !tbaa !11
  %5 = load ptr, ptr %3, align 8, !tbaa !13
  %6 = getelementptr inbounds nuw %struct.BIT_DStream_t, ptr %5, i32 0, i32 0
  %7 = load i64, ptr %6, align 8, !tbaa !43
  %8 = load ptr, ptr %3, align 8, !tbaa !13
  %9 = getelementptr inbounds nuw %struct.BIT_DStream_t, ptr %8, i32 0, i32 1
  %10 = load i32, ptr %9, align 8, !tbaa !44
  %11 = zext i32 %10 to i64
  %12 = sub i64 64, %11
  %13 = load i32, ptr %4, align 4, !tbaa !11
  %14 = zext i32 %13 to i64
  %15 = sub i64 %12, %14
  %16 = trunc i64 %15 to i32
  %17 = load i32, ptr %4, align 4, !tbaa !11
  %18 = call i64 @BIT_getMiddleBits(i64 noundef %7, i32 noundef %16, i32 noundef %17)
  ret i64 %18
}

; Function Attrs: alwaysinline nounwind uwtable
define internal i32 @BIT_reloadDStream(ptr noundef %0) #5 {
  %2 = alloca i32, align 4
  %3 = alloca ptr, align 8
  %4 = alloca i32, align 4
  %5 = alloca i32, align 4
  store ptr %0, ptr %3, align 8, !tbaa !13
  %6 = load ptr, ptr %3, align 8, !tbaa !13
  %7 = getelementptr inbounds nuw %struct.BIT_DStream_t, ptr %6, i32 0, i32 1
  %8 = load i32, ptr %7, align 8, !tbaa !44
  %9 = zext i32 %8 to i64
  %10 = icmp ugt i64 %9, 64
  br i1 %10, label %11, label %12

11:                                               ; preds = %1
  store i32 3, ptr %2, align 4
  br label %87

12:                                               ; preds = %1
  %13 = load ptr, ptr %3, align 8, !tbaa !13
  %14 = getelementptr inbounds nuw %struct.BIT_DStream_t, ptr %13, i32 0, i32 2
  %15 = load ptr, ptr %14, align 8, !tbaa !42
  %16 = load ptr, ptr %3, align 8, !tbaa !13
  %17 = getelementptr inbounds nuw %struct.BIT_DStream_t, ptr %16, i32 0, i32 4
  %18 = load ptr, ptr %17, align 8, !tbaa !41
  %19 = icmp uge ptr %15, %18
  br i1 %19, label %20, label %23

20:                                               ; preds = %12
  %21 = load ptr, ptr %3, align 8, !tbaa !13
  %22 = call i32 @BIT_reloadDStreamFast(ptr noundef %21)
  store i32 %22, ptr %2, align 4
  br label %87

23:                                               ; preds = %12
  %24 = load ptr, ptr %3, align 8, !tbaa !13
  %25 = getelementptr inbounds nuw %struct.BIT_DStream_t, ptr %24, i32 0, i32 2
  %26 = load ptr, ptr %25, align 8, !tbaa !42
  %27 = load ptr, ptr %3, align 8, !tbaa !13
  %28 = getelementptr inbounds nuw %struct.BIT_DStream_t, ptr %27, i32 0, i32 3
  %29 = load ptr, ptr %28, align 8, !tbaa !39
  %30 = icmp eq ptr %26, %29
  br i1 %30, label %31, label %39

31:                                               ; preds = %23
  %32 = load ptr, ptr %3, align 8, !tbaa !13
  %33 = getelementptr inbounds nuw %struct.BIT_DStream_t, ptr %32, i32 0, i32 1
  %34 = load i32, ptr %33, align 8, !tbaa !44
  %35 = zext i32 %34 to i64
  %36 = icmp ult i64 %35, 64
  br i1 %36, label %37, label %38

37:                                               ; preds = %31
  store i32 1, ptr %2, align 4
  br label %87

38:                                               ; preds = %31
  store i32 2, ptr %2, align 4
  br label %87

39:                                               ; preds = %23
  call void @llvm.lifetime.start.p0(i64 4, ptr %4) #9
  %40 = load ptr, ptr %3, align 8, !tbaa !13
  %41 = getelementptr inbounds nuw %struct.BIT_DStream_t, ptr %40, i32 0, i32 1
  %42 = load i32, ptr %41, align 8, !tbaa !44
  %43 = lshr i32 %42, 3
  store i32 %43, ptr %4, align 4, !tbaa !11
  call void @llvm.lifetime.start.p0(i64 4, ptr %5) #9
  store i32 0, ptr %5, align 4, !tbaa !11
  %44 = load ptr, ptr %3, align 8, !tbaa !13
  %45 = getelementptr inbounds nuw %struct.BIT_DStream_t, ptr %44, i32 0, i32 2
  %46 = load ptr, ptr %45, align 8, !tbaa !42
  %47 = load i32, ptr %4, align 4, !tbaa !11
  %48 = zext i32 %47 to i64
  %49 = sub i64 0, %48
  %50 = getelementptr inbounds i8, ptr %46, i64 %49
  %51 = load ptr, ptr %3, align 8, !tbaa !13
  %52 = getelementptr inbounds nuw %struct.BIT_DStream_t, ptr %51, i32 0, i32 3
  %53 = load ptr, ptr %52, align 8, !tbaa !39
  %54 = icmp ult ptr %50, %53
  br i1 %54, label %55, label %66

55:                                               ; preds = %39
  %56 = load ptr, ptr %3, align 8, !tbaa !13
  %57 = getelementptr inbounds nuw %struct.BIT_DStream_t, ptr %56, i32 0, i32 2
  %58 = load ptr, ptr %57, align 8, !tbaa !42
  %59 = load ptr, ptr %3, align 8, !tbaa !13
  %60 = getelementptr inbounds nuw %struct.BIT_DStream_t, ptr %59, i32 0, i32 3
  %61 = load ptr, ptr %60, align 8, !tbaa !39
  %62 = ptrtoint ptr %58 to i64
  %63 = ptrtoint ptr %61 to i64
  %64 = sub i64 %62, %63
  %65 = trunc i64 %64 to i32
  store i32 %65, ptr %4, align 4, !tbaa !11
  store i32 1, ptr %5, align 4, !tbaa !11
  br label %66

66:                                               ; preds = %55, %39
  %67 = load i32, ptr %4, align 4, !tbaa !11
  %68 = load ptr, ptr %3, align 8, !tbaa !13
  %69 = getelementptr inbounds nuw %struct.BIT_DStream_t, ptr %68, i32 0, i32 2
  %70 = load ptr, ptr %69, align 8, !tbaa !42
  %71 = zext i32 %67 to i64
  %72 = sub i64 0, %71
  %73 = getelementptr inbounds i8, ptr %70, i64 %72
  store ptr %73, ptr %69, align 8, !tbaa !42
  %74 = load i32, ptr %4, align 4, !tbaa !11
  %75 = mul i32 %74, 8
  %76 = load ptr, ptr %3, align 8, !tbaa !13
  %77 = getelementptr inbounds nuw %struct.BIT_DStream_t, ptr %76, i32 0, i32 1
  %78 = load i32, ptr %77, align 8, !tbaa !44
  %79 = sub i32 %78, %75
  store i32 %79, ptr %77, align 8, !tbaa !44
  %80 = load ptr, ptr %3, align 8, !tbaa !13
  %81 = getelementptr inbounds nuw %struct.BIT_DStream_t, ptr %80, i32 0, i32 2
  %82 = load ptr, ptr %81, align 8, !tbaa !42
  %83 = call i64 @MEM_readLEST(ptr noundef %82)
  %84 = load ptr, ptr %3, align 8, !tbaa !13
  %85 = getelementptr inbounds nuw %struct.BIT_DStream_t, ptr %84, i32 0, i32 0
  store i64 %83, ptr %85, align 8, !tbaa !43
  %86 = load i32, ptr %5, align 4, !tbaa !11
  store i32 %86, ptr %2, align 4
  call void @llvm.lifetime.end.p0(i64 4, ptr %5) #9
  call void @llvm.lifetime.end.p0(i64 4, ptr %4) #9
  br label %87

87:                                               ; preds = %66, %38, %37, %20, %11
  %88 = load i32, ptr %2, align 4
  ret i32 %88
}

; Function Attrs: alwaysinline nounwind uwtable
define internal i64 @BIT_readBits(ptr noundef %0, i32 noundef %1) #5 {
  %3 = alloca ptr, align 8
  %4 = alloca i32, align 4
  %5 = alloca i64, align 8
  store ptr %0, ptr %3, align 8, !tbaa !13
  store i32 %1, ptr %4, align 4, !tbaa !11
  call void @llvm.lifetime.start.p0(i64 8, ptr %5) #9
  %6 = load ptr, ptr %3, align 8, !tbaa !13
  %7 = load i32, ptr %4, align 4, !tbaa !11
  %8 = call i64 @BIT_lookBits(ptr noundef %6, i32 noundef %7)
  store i64 %8, ptr %5, align 8, !tbaa !14
  %9 = load ptr, ptr %3, align 8, !tbaa !13
  %10 = load i32, ptr %4, align 4, !tbaa !11
  call void @BIT_skipBits(ptr noundef %9, i32 noundef %10)
  %11 = load i64, ptr %5, align 8, !tbaa !14
  call void @llvm.lifetime.end.p0(i64 8, ptr %5) #9
  ret i64 %11
}

; Function Attrs: inlinehint nounwind uwtable
define internal void @FSE_initDState(ptr noundef %0, ptr noundef %1, ptr noundef %2) #3 {
  %4 = alloca ptr, align 8
  %5 = alloca ptr, align 8
  %6 = alloca ptr, align 8
  %7 = alloca ptr, align 8
  %8 = alloca ptr, align 8
  store ptr %0, ptr %4, align 8, !tbaa !13
  store ptr %1, ptr %5, align 8, !tbaa !13
  store ptr %2, ptr %6, align 8, !tbaa !4
  call void @llvm.lifetime.start.p0(i64 8, ptr %7) #9
  %9 = load ptr, ptr %6, align 8, !tbaa !4
  store ptr %9, ptr %7, align 8, !tbaa !13
  call void @llvm.lifetime.start.p0(i64 8, ptr %8) #9
  %10 = load ptr, ptr %7, align 8, !tbaa !13
  store ptr %10, ptr %8, align 8, !tbaa !13
  %11 = load ptr, ptr %5, align 8, !tbaa !13
  %12 = load ptr, ptr %8, align 8, !tbaa !13
  %13 = getelementptr inbounds nuw %struct.FSE_DTableHeader, ptr %12, i32 0, i32 0
  %14 = load i16, ptr %13, align 2, !tbaa !18
  %15 = zext i16 %14 to i32
  %16 = call i64 @BIT_readBits(ptr noundef %11, i32 noundef %15)
  %17 = load ptr, ptr %4, align 8, !tbaa !13
  %18 = getelementptr inbounds nuw %struct.FSE_DState_t, ptr %17, i32 0, i32 0
  store i64 %16, ptr %18, align 8, !tbaa !45
  %19 = load ptr, ptr %5, align 8, !tbaa !13
  %20 = call i32 @BIT_reloadDStream(ptr noundef %19)
  %21 = load ptr, ptr %6, align 8, !tbaa !4
  %22 = getelementptr inbounds i32, ptr %21, i64 1
  %23 = load ptr, ptr %4, align 8, !tbaa !13
  %24 = getelementptr inbounds nuw %struct.FSE_DState_t, ptr %23, i32 0, i32 1
  store ptr %22, ptr %24, align 8, !tbaa !47
  call void @llvm.lifetime.end.p0(i64 8, ptr %8) #9
  call void @llvm.lifetime.end.p0(i64 8, ptr %7) #9
  ret void
}