; Function Attrs: inlinehint mustprogress nofree norecurse nosync nounwind willreturn memory(read, argmem: readwrite, inaccessiblemem: none) uwtable
define internal fastcc void @FSE_initDState(ptr noundef nonnull writeonly captures(none) initializes((0, 16)) %0, ptr noundef nonnull captures(none) %1, ptr noundef %2) unnamed_addr #6 {
  %4 = load i16, ptr %2, align 2, !tbaa !37
  %5 = zext i16 %4 to i32
  %6 = load i64, ptr %1, align 8, !tbaa !34
  %7 = getelementptr inbounds nuw i8, ptr %1, i64 8
  %8 = load i32, ptr %7, align 8, !tbaa !35
  %9 = add i32 %8, %5
  %10 = sub i32 0, %9
  %11 = and i32 %10, 63
  %12 = zext nneg i32 %11 to i64
  %13 = lshr i64 %6, %12
  %14 = zext nneg i16 %4 to i64
  %notmask.i = shl nsw i64 -1, %14
  %15 = xor i64 %notmask.i, -1
  %16 = and i64 %13, %15
  store i32 %9, ptr %7, align 8, !tbaa !35
  store i64 %16, ptr %0, align 8, !tbaa !38
  %17 = icmp ugt i32 %9, 64
  br i1 %17, label %BIT_reloadDStream.exit, label %18

18:                                               ; preds = %3
  %19 = getelementptr inbounds nuw i8, ptr %1, i64 16
  %20 = load ptr, ptr %19, align 8, !tbaa !33
  %21 = getelementptr inbounds nuw i8, ptr %1, i64 32
  %22 = load ptr, ptr %21, align 8, !tbaa !32
  %.not.i = icmp ult ptr %20, %22
  br i1 %.not.i, label %28, label %BIT_reloadDStreamFast.exit

BIT_reloadDStreamFast.exit:                       ; preds = %18
  %23 = lshr i32 %9, 3
  %24 = zext nneg i32 %23 to i64
  %25 = sub nsw i64 0, %24
  %26 = getelementptr inbounds i8, ptr %20, i64 %25
  store ptr %26, ptr %19, align 8, !tbaa !33
  %27 = and i32 %9, 7
  br label %BIT_reloadDStream.exit.sink.split

28:                                               ; preds = %18
  %29 = getelementptr inbounds nuw i8, ptr %1, i64 24
  %30 = load ptr, ptr %29, align 8, !tbaa !28
  %31 = icmp eq ptr %20, %30
  br i1 %31, label %BIT_reloadDStream.exit, label %32

32:                                               ; preds = %28
  %33 = lshr i32 %9, 3
  %34 = zext nneg i32 %33 to i64
  %35 = sub nsw i64 0, %34
  %36 = getelementptr inbounds i8, ptr %20, i64 %35
  %37 = icmp ult ptr %36, %30
  %38 = ptrtoint ptr %20 to i64
  %39 = ptrtoint ptr %30 to i64
  %40 = sub i64 %38, %39
  %41 = trunc i64 %40 to i32
  %.020.i = select i1 %37, i32 %41, i32 %33
  %42 = zext i32 %.020.i to i64
  %43 = sub nsw i64 0, %42
  %44 = getelementptr inbounds i8, ptr %20, i64 %43
  store ptr %44, ptr %19, align 8, !tbaa !33
  %45 = shl i32 %.020.i, 3
  %46 = sub i32 %9, %45
  br label %BIT_reloadDStream.exit.sink.split

BIT_reloadDStream.exit.sink.split:                ; preds = %32, %BIT_reloadDStreamFast.exit
  %storemerge = phi i32 [ %27, %BIT_reloadDStreamFast.exit ], [ %46, %32 ]
  %.val.i.sink.in = phi ptr [ %26, %BIT_reloadDStreamFast.exit ], [ %44, %32 ]
  store i32 %storemerge, ptr %7, align 8, !tbaa !35
  %.val.i.sink = load i64, ptr %.val.i.sink.in, align 1, !tbaa !12
  store i64 %.val.i.sink, ptr %1, align 8, !tbaa !34
  br label %BIT_reloadDStream.exit

BIT_reloadDStream.exit:                           ; preds = %BIT_reloadDStream.exit.sink.split, %28, %3
  %47 = getelementptr inbounds nuw i8, ptr %2, i64 4
  %48 = getelementptr inbounds nuw i8, ptr %0, i64 8
  store ptr %47, ptr %48, align 8, !tbaa !40
  ret void
}